target datalayout = "e-m:e-p270:32:32-p271:32:32-p272:64:64-i64:64-i128:128-f80:128-n8:16:32:64-S128"
target triple = "x86_64-pc-linux-gnu"

%struct._zend_op_array = type { i8, [3 x i8], i32, ptr, ptr, ptr, i32, i32, ptr, ptr, ptr, ptr, i32, i32, i32, i32, ptr, ptr, ptr, ptr, ptr, i32, i32, ptr, ptr, ptr, i32, i32, i32, i32, ptr, ptr, [6 x ptr] }
%struct._zend_ssa_range = type { i64, i64, i8, i8 }
%struct.zend_type = type { ptr, i32 }
%struct._zend_ssa_var_info = type { i32, i8, %struct._zend_ssa_range, ptr }
%struct._zend_arg_info = type { ptr, %struct.zend_type, ptr }
%struct.anon = type { i8, [3 x i8], i32, ptr, ptr, ptr, i32, i32, ptr, ptr, ptr, ptr, i32 }

; Function Attrs: nounwind uwtable
define i32 @zend_fetch_arg_info_type(ptr noundef %0, ptr noundef %1, ptr noundef %2) #0 {
  %4 = alloca ptr, align 8
  %5 = alloca ptr, align 8
  %6 = alloca ptr, align 8
  store ptr %0, ptr %4, align 8
  store ptr %1, ptr %5, align 8
  store ptr %2, ptr %6, align 8
  %7 = load ptr, ptr %4, align 8
  %8 = load ptr, ptr %5, align 8
  %9 = getelementptr inbounds %struct._zend_arg_info, ptr %8, i32 0, i32 1
  %10 = load ptr, ptr %6, align 8
  %11 = getelementptr inbounds { ptr, i32 }, ptr %9, i32 0, i32 0
  %12 = load ptr, ptr %11, align 8
  %13 = getelementptr inbounds { ptr, i32 }, ptr %9, i32 0, i32 1
  %14 = load i32, ptr %13, align 8
  %15 = call i32 @zend_convert_type(ptr noundef %7, ptr %12, i32 %14, ptr noundef %10)
  ret i32 %15
}

; Function Attrs: nounwind uwtable
define hidden i32 @zend_get_return_info_from_signature_only(ptr noundef %0, ptr noundef %1, ptr noundef %2, ptr noundef %3, i1 noundef zeroext %4) #0 {
  %6 = alloca ptr, align 8
  %7 = alloca ptr, align 8
  %8 = alloca ptr, align 8
  %9 = alloca ptr, align 8
  %10 = alloca i8, align 1
  %11 = alloca i32, align 4
  %12 = alloca ptr, align 8
  store ptr %0, ptr %6, align 8
  store ptr %1, ptr %7, align 8
  store ptr %2, ptr %8, align 8
  store ptr %3, ptr %9, align 8
  %13 = zext i1 %4 to i8
  store i8 %13, ptr %10, align 1
  %14 = load ptr, ptr %6, align 8
  %15 = getelementptr inbounds %struct.anon, ptr %14, i32 0, i32 2
  %16 = load i32, ptr %15, align 4
  %17 = and i32 %16, 8192
  %18 = icmp ne i32 %17, 0
  br i1 %18, label %19, label %45

19:                                               ; preds = %5
  %20 = load i8, ptr %10, align 1
  %21 = trunc i8 %20 to i1
  br i1 %21, label %32, label %22

22:                                               ; preds = %19
  %23 = load ptr, ptr %6, align 8
  %24 = getelementptr inbounds %struct.anon, ptr %23, i32 0, i32 8
  %25 = load ptr, ptr %24, align 8
  %26 = getelementptr inbounds %struct._zend_arg_info, ptr %25, i64 -1
  %27 = getelementptr inbounds %struct._zend_arg_info, ptr %26, i32 0, i32 1
  %28 = getelementptr inbounds %struct.zend_type, ptr %27, i32 0, i32 1
  %29 = load i32, ptr %28, align 8
  %30 = and i32 %29, 536870912
  %31 = icmp ne i32 %30, 0
  br i1 %31, label %45, label %32

32:                                               ; preds = %22, %19
  %33 = load ptr, ptr %6, align 8
  %34 = getelementptr inbounds %struct.anon, ptr %33, i32 0, i32 8
  %35 = load ptr, ptr %34, align 8
  %36 = getelementptr inbounds %struct._zend_arg_info, ptr %35, i64 -1
  store ptr %36, ptr %12, align 8
  %37 = load ptr, ptr %7, align 8
  %38 = load ptr, ptr %12, align 8
  %39 = load ptr, ptr %8, align 8
  %40 = call i32 @zend_fetch_arg_info_type(ptr noundef %37, ptr noundef %38, ptr noundef %39)
  store i32 %40, ptr %11, align 4
  %41 = load ptr, ptr %8, align 8
  %42 = icmp ne ptr %41, null
  %43 = load ptr, ptr %9, align 8
  %44 = zext i1 %42 to i8
  store i8 %44, ptr %43, align 1
  br label %48

45:                                               ; preds = %22, %5
  store i32 -520094722, ptr %11, align 4
  %46 = load ptr, ptr %8, align 8
  store ptr null, ptr %46, align 8
  %47 = load ptr, ptr %9, align 8
  store i8 0, ptr %47, align 1
  br label %48

48:                                               ; preds = %45, %32
  %49 = load ptr, ptr %6, align 8
  %50 = getelementptr inbounds %struct.anon, ptr %49, i32 0, i32 2
  %51 = load i32, ptr %50, align 4
  %52 = and i32 %51, 4096
  %53 = icmp ne i32 %52, 0
  br i1 %53, label %54, label %65

54:                                               ; preds = %48
  %55 = load ptr, ptr %6, align 8
  %56 = getelementptr inbounds %struct.anon, ptr %55, i32 0, i32 2
  %57 = load i32, ptr %56, align 4
  %58 = and i32 %57, 16777216
  %59 = icmp ne i32 %58, 0
  br i1 %59, label %65, label %60

60:                                               ; preds = %54
  %61 = load i32, ptr %11, align 4
  %62 = or i32 %61, 1024
  store i32 %62, ptr %11, align 4
  %63 = load ptr, ptr %8, align 8
  store ptr null, ptr %63, align 8
  %64 = load ptr, ptr %9, align 8
  store i8 0, ptr %64, align 1
  br label %65

65:                                               ; preds = %60, %54, %48
  %66 = load i32, ptr %11, align 4
  ret i32 %66
}

; Function Attrs: nounwind uwtable
define void @zend_init_func_return_info(ptr noundef %0, ptr noundef %1, ptr noundef %2) #0 {
  %4 = alloca ptr, align 8
  %5 = alloca ptr, align 8
  %6 = alloca ptr, align 8
  %7 = alloca %struct._zend_ssa_range, align 8
  %8 = alloca i8, align 1
  store ptr %0, ptr %4, align 8
  store ptr %1, ptr %5, align 8
  store ptr %2, ptr %6, align 8
  %9 = load ptr, ptr %4, align 8
  %10 = getelementptr inbounds %struct._zend_op_array, ptr %9, i32 0, i32 2
  %11 = load i32, ptr %10, align 4
  %12 = and i32 %11, 8192
  %13 = icmp ne i32 %12, 0
  call void @llvm.assume(i1 %13)
  call void @llvm.memset.p0.i64(ptr align 8 %7, i8 0, i64 24, i1 false)
  store i8 0, ptr %8, align 1
  %14 = load ptr, ptr %4, align 8
  %15 = load ptr, ptr %5, align 8
  %16 = load ptr, ptr %6, align 8
  %17 = getelementptr inbounds %struct._zend_ssa_var_info, ptr %16, i32 0, i32 3
  %18 = call i32 @zend_get_return_info_from_signature_only(ptr noundef %14, ptr noundef %15, ptr noundef %17, ptr noundef %8, i1 noundef zeroext true)
  %19 = load ptr, ptr %6, align 8
  %20 = getelementptr inbounds %struct._zend_ssa_var_info, ptr %19, i32 0, i32 0
  store i32 %18, ptr %20, align 8
  %21 = load i8, ptr %8, align 1
  %22 = trunc i8 %21 to i1
  %23 = load ptr, ptr %6, align 8
  %24 = getelementptr inbounds %struct._zend_ssa_var_info, ptr %23, i32 0, i32 1
  %25 = zext i1 %22 to i8
  %26 = load i8, ptr %24, align 4
  %27 = shl i8 %25, 1
  %28 = and i8 %26, -3
  %29 = or i8 %28, %27
  store i8 %29, ptr %24, align 4
  %30 = load ptr, ptr %6, align 8
  %31 = getelementptr inbounds %struct._zend_ssa_var_info, ptr %30, i32 0, i32 2
  call void @llvm.memcpy.p0.p0.i64(ptr align 8 %31, ptr align 8 %7, i64 24, i1 false)
  %32 = load ptr, ptr %6, align 8
  %33 = getelementptr inbounds %struct._zend_ssa_var_info, ptr %32, i32 0, i32 1
  %34 = load i8, ptr %33, align 4
  %35 = and i8 %34, -2
  %36 = or i8 %35, 0
  store i8 %36, ptr %33, align 4
  ret void
}