; Function Attrs: nounwind uwtable
define void @zend_init_func_return_info(ptr nocapture noundef readonly %0, ptr noundef %1, ptr noundef %2) local_unnamed_addr #0 {
  %4 = getelementptr inbounds i8, ptr %0, i64 4
  %5 = load i32, ptr %4, align 4
  %6 = and i32 %5, 8192
  %7 = icmp ne i32 %6, 0
  tail call void @llvm.assume(i1 %7)
  %8 = getelementptr inbounds i8, ptr %2, i64 32
  %.phi.trans.insert.i = getelementptr inbounds i8, ptr %0, i64 40
  %.pre.i = load ptr, ptr %.phi.trans.insert.i, align 8
  %.phi.trans.insert19.i = getelementptr inbounds i8, ptr %.pre.i, i64 -16
  %.pre20.i = load i32, ptr %.phi.trans.insert19.i, align 8
  %9 = getelementptr inbounds i8, ptr %.pre.i, i64 -24
  %10 = load ptr, ptr %9, align 8
  %11 = tail call fastcc i32 @zend_convert_type(ptr noundef %1, ptr %10, i32 %.pre20.i, ptr noundef nonnull %8)
  %12 = load i32, ptr %4, align 4
  %13 = and i32 %12, 16781312
  %or.cond.i = icmp eq i32 %13, 4096
  br i1 %or.cond.i, label %14, label %zend_get_return_info_from_signature_only.exit

14:                                               ; preds = %3
  %15 = or i32 %11, 1024
  store ptr null, ptr %8, align 8
  br label %zend_get_return_info_from_signature_only.exit

zend_get_return_info_from_signature_only.exit:    ; preds = %3, %14
  %.0 = phi i8 [ 0, %14 ], [ 2, %3 ]
  %.1.i = phi i32 [ %15, %14 ], [ %11, %3 ]
  store i32 %.1.i, ptr %2, align 8
  %16 = getelementptr inbounds i8, ptr %2, i64 4
  %17 = load i8, ptr %16, align 4
  %18 = and i8 %17, -4
  %19 = or disjoint i8 %18, %.0
  %20 = getelementptr inbounds i8, ptr %2, i64 8
  tail call void @llvm.memset.p0.i64(ptr noundef nonnull align 8 dereferenceable(24) %20, i8 0, i64 24, i1 false)
  store i8 %19, ptr %16, align 4
  ret void
}